; Function Attrs: mustprogress nounwind uwtable
define void @_ZN19FunnelConsoleActionD2Ev(ptr noundef nonnull align 8 dereferenceable(184) %0) unnamed_addr #2 align 2 {
  store ptr getelementptr inbounds ({ [15 x ptr] }, ptr @_ZTV19FunnelConsoleAction, i64 0, i32 0, i64 2), ptr %0, align 8
  %2 = getelementptr inbounds i8, ptr %0, i64 168
  %3 = load ptr, ptr %2, align 8
  %.not.i.i = icmp eq ptr %3, null
  br i1 %.not.i.i, label %_ZN8QPointerI15IOConsoleDialogED2Ev.exit, label %4

4:                                                ; preds = %1
  %5 = atomicrmw sub ptr %3, i32 1 seq_cst, align 4
  %.not2.i.i = icmp eq i32 %5, 1
  br i1 %.not2.i.i, label %6, label %_ZN8QPointerI15IOConsoleDialogED2Ev.exit

6:                                                ; preds = %4
  %7 = load ptr, ptr %2, align 8
  %8 = icmp eq ptr %7, null
  br i1 %8, label %_ZN8QPointerI15IOConsoleDialogED2Ev.exit, label %9

9:                                                ; preds = %6
  tail call void @_ZdlPv(ptr noundef nonnull %7) #24
  br label %_ZN8QPointerI15IOConsoleDialogED2Ev.exit

_ZN8QPointerI15IOConsoleDialogED2Ev.exit:         ; preds = %1, %4, %6, %9
  %10 = getelementptr inbounds i8, ptr %0, i64 112
  %11 = load ptr, ptr %10, align 8
  %.not.i.i.i = icmp eq ptr %11, null
  br i1 %.not.i.i.i, label %_ZN7QStringD2Ev.exit, label %_ZN17QArrayDataPointerIDsE5derefEv.exit.i.i

_ZN17QArrayDataPointerIDsE5derefEv.exit.i.i:      ; preds = %_ZN8QPointerI15IOConsoleDialogED2Ev.exit
  %12 = atomicrmw sub ptr %11, i32 1 seq_cst, align 4
  %.not.i.i1 = icmp eq i32 %12, 1
  br i1 %.not.i.i1, label %13, label %_ZN7QStringD2Ev.exit

13:                                               ; preds = %_ZN17QArrayDataPointerIDsE5derefEv.exit.i.i
  %14 = load ptr, ptr %10, align 8
  tail call void @_ZN10QArrayData10deallocateEPS_xx(ptr noundef %14, i64 noundef 2, i64 noundef 8) #24
  br label %_ZN7QStringD2Ev.exit

_ZN7QStringD2Ev.exit:                             ; preds = %_ZN8QPointerI15IOConsoleDialogED2Ev.exit, %_ZN17QArrayDataPointerIDsE5derefEv.exit.i.i, %13
  store ptr getelementptr inbounds ({ [15 x ptr] }, ptr @_ZTV12FunnelAction, i64 0, i32 0, i64 2), ptr %0, align 8
  %15 = getelementptr inbounds i8, ptr %0, i64 104
  tail call void @_ZN5QHashI7QString15QHashDummyValueED2Ev(ptr noundef nonnull align 8 dereferenceable(8) %15) #24
  %16 = getelementptr inbounds i8, ptr %0, i64 40
  %17 = load ptr, ptr %16, align 8
  %.not.i.i.i.i = icmp eq ptr %17, null
  br i1 %.not.i.i.i.i, label %_ZN7QStringD2Ev.exit.i, label %_ZN17QArrayDataPointerIDsE5derefEv.exit.i.i.i

_ZN17QArrayDataPointerIDsE5derefEv.exit.i.i.i:    ; preds = %_ZN7QStringD2Ev.exit
  %18 = atomicrmw sub ptr %17, i32 1 seq_cst, align 4
  %.not.i.i.i2 = icmp eq i32 %18, 1
  br i1 %.not.i.i.i2, label %19, label %_ZN7QStringD2Ev.exit.i

19:                                               ; preds = %_ZN17QArrayDataPointerIDsE5derefEv.exit.i.i.i
  %20 = load ptr, ptr %16, align 8
  tail call void @_ZN10QArrayData10deallocateEPS_xx(ptr noundef %20, i64 noundef 2, i64 noundef 8) #24
  br label %_ZN7QStringD2Ev.exit.i

_ZN7QStringD2Ev.exit.i:                           ; preds = %19, %_ZN17QArrayDataPointerIDsE5derefEv.exit.i.i.i, %_ZN7QStringD2Ev.exit
  %21 = getelementptr inbounds i8, ptr %0, i64 16
  %22 = load ptr, ptr %21, align 8
  %.not.i.i.i1.i = icmp eq ptr %22, null
  br i1 %.not.i.i.i1.i, label %_ZN12FunnelActionD2Ev.exit, label %_ZN17QArrayDataPointerIDsE5derefEv.exit.i.i2.i

_ZN17QArrayDataPointerIDsE5derefEv.exit.i.i2.i:   ; preds = %_ZN7QStringD2Ev.exit.i
  %23 = atomicrmw sub ptr %22, i32 1 seq_cst, align 4
  %.not.i.i3.i = icmp eq i32 %23, 1
  br i1 %.not.i.i3.i, label %24, label %_ZN12FunnelActionD2Ev.exit

24:                                               ; preds = %_ZN17QArrayDataPointerIDsE5derefEv.exit.i.i2.i
  %25 = load ptr, ptr %21, align 8
  tail call void @_ZN10QArrayData10deallocateEPS_xx(ptr noundef %25, i64 noundef 2, i64 noundef 8) #24
  br label %_ZN12FunnelActionD2Ev.exit

_ZN12FunnelActionD2Ev.exit:                       ; preds = %_ZN7QStringD2Ev.exit.i, %_ZN17QArrayDataPointerIDsE5derefEv.exit.i.i2.i, %24
  tail call void @_ZN7QActionD2Ev(ptr noundef nonnull align 8 dereferenceable(16) %0) #24
  ret void
}